; ModuleID = '9/45.c'
source_filename = "9/45.c"
target datalayout = "e-m:e-p270:32:32-p271:32:32-p272:64:64-i64:64-f80:128-n8:16:32:64-S128"
target triple = "x86_64-pc-linux-gnu"

@.str = private unnamed_addr constant [3 x i8] c"%d\00", align 1
@.str.1 = private unnamed_addr constant [6 x i8] c"%s %d\00", align 1
@.str.2 = private unnamed_addr constant [4 x i8] c"%s\0A\00", align 1

; Function Attrs: noinline nounwind uwtable
define dso_local i32 @main() #0 {
  %1 = alloca i32, align 4
  %2 = alloca i32, align 4
  %3 = alloca i32, align 4
  %4 = alloca i32, align 4
  %5 = alloca i32, align 4
  %6 = alloca i32, align 4
  %7 = alloca i32, align 4
  %8 = alloca [101 x i32], align 16
  %9 = alloca [101 x i32], align 16
  %10 = alloca [101 x i32], align 16
  %11 = alloca [11 x i8], align 1
  %12 = alloca [101 x [11 x i8]], align 16
  %13 = alloca [101 x [11 x i8]], align 16
  %14 = alloca [101 x [11 x i8]], align 16
  store i32 0, i32* %1, align 4
  %15 = call i32 (i8*, ...) @__isoc99_scanf(i8* getelementptr inbounds ([3 x i8], [3 x i8]* @.str, i64 0, i64 0), i32* %4)
  store i32 0, i32* %5, align 4
  store i32 0, i32* %6, align 4
  store i32 0, i32* %7, align 4
  br label %16

16:                                               ; preds = %73, %0
  %17 = load i32, i32* %5, align 4
  %18 = load i32, i32* %4, align 4
  %19 = icmp slt i32 %17, %18
  br i1 %19, label %20, label %76

20:                                               ; preds = %16
  %21 = load i32, i32* %5, align 4
  %22 = sext i32 %21 to i64
  %23 = getelementptr inbounds [101 x [11 x i8]], [101 x [11 x i8]]* %12, i64 0, i64 %22
  %24 = getelementptr inbounds [11 x i8], [11 x i8]* %23, i64 0, i64 0
  %25 = load i32, i32* %5, align 4
  %26 = sext i32 %25 to i64
  %27 = getelementptr inbounds [101 x i32], [101 x i32]* %8, i64 0, i64 %26
  %28 = call i32 (i8*, ...) @__isoc99_scanf(i8* getelementptr inbounds ([6 x i8], [6 x i8]* @.str.1, i64 0, i64 0), i8* %24, i32* %27)
  %29 = load i32, i32* %5, align 4
  %30 = sext i32 %29 to i64
  %31 = getelementptr inbounds [101 x i32], [101 x i32]* %8, i64 0, i64 %30
  %32 = load i32, i32* %31, align 4
  %33 = icmp sge i32 %32, 60
  br i1 %33, label %34, label %53

34:                                               ; preds = %20
  %35 = load i32, i32* %6, align 4
  %36 = sext i32 %35 to i64
  %37 = getelementptr inbounds [101 x [11 x i8]], [101 x [11 x i8]]* %13, i64 0, i64 %36
  %38 = getelementptr inbounds [11 x i8], [11 x i8]* %37, i64 0, i64 0
  %39 = load i32, i32* %5, align 4
  %40 = sext i32 %39 to i64
  %41 = getelementptr inbounds [101 x [11 x i8]], [101 x [11 x i8]]* %12, i64 0, i64 %40
  %42 = getelementptr inbounds [11 x i8], [11 x i8]* %41, i64 0, i64 0
  %43 = call i8* @strcpy(i8* %38, i8* %42) #3
  %44 = load i32, i32* %5, align 4
  %45 = sext i32 %44 to i64
  %46 = getelementptr inbounds [101 x i32], [101 x i32]* %8, i64 0, i64 %45
  %47 = load i32, i32* %46, align 4
  %48 = load i32, i32* %6, align 4
  %49 = sext i32 %48 to i64
  %50 = getelementptr inbounds [101 x i32], [101 x i32]* %9, i64 0, i64 %49
  store i32 %47, i32* %50, align 4
  %51 = load i32, i32* %6, align 4
  %52 = add nsw i32 %51, 1
  store i32 %52, i32* %6, align 4
  br label %72

53:                                               ; preds = %20
  %54 = load i32, i32* %7, align 4
  %55 = sext i32 %54 to i64
  %56 = getelementptr inbounds [101 x [11 x i8]], [101 x [11 x i8]]* %14, i64 0, i64 %55
  %57 = getelementptr inbounds [11 x i8], [11 x i8]* %56, i64 0, i64 0
  %58 = load i32, i32* %5, align 4
  %59 = sext i32 %58 to i64
  %60 = getelementptr inbounds [101 x [11 x i8]], [101 x [11 x i8]]* %12, i64 0, i64 %59
  %61 = getelementptr inbounds [11 x i8], [11 x i8]* %60, i64 0, i64 0
  %62 = call i8* @strcpy(i8* %57, i8* %61) #3
  %63 = load i32, i32* %5, align 4
  %64 = sext i32 %63 to i64
  %65 = getelementptr inbounds [101 x i32], [101 x i32]* %8, i64 0, i64 %64
  %66 = load i32, i32* %65, align 4
  %67 = load i32, i32* %7, align 4
  %68 = sext i32 %67 to i64
  %69 = getelementptr inbounds [101 x i32], [101 x i32]* %10, i64 0, i64 %68
  store i32 %66, i32* %69, align 4
  %70 = load i32, i32* %7, align 4
  %71 = add nsw i32 %70, 1
  store i32 %71, i32* %7, align 4
  br label %72

72:                                               ; preds = %53, %34
  br label %73

73:                                               ; preds = %72
  %74 = load i32, i32* %5, align 4
  %75 = add nsw i32 %74, 1
  store i32 %75, i32* %5, align 4
  br label %16

76:                                               ; preds = %16
  store i32 1, i32* %2, align 4
  br label %77

77:                                               ; preds = %145, %76
  %78 = load i32, i32* %2, align 4
  %79 = load i32, i32* %6, align 4
  %80 = icmp sle i32 %78, %79
  br i1 %80, label %81, label %148

81:                                               ; preds = %77
  store i32 0, i32* %5, align 4
  br label %82

82:                                               ; preds = %141, %81
  %83 = load i32, i32* %5, align 4
  %84 = load i32, i32* %6, align 4
  %85 = load i32, i32* %2, align 4
  %86 = sub nsw i32 %84, %85
  %87 = icmp slt i32 %83, %86
  br i1 %87, label %88, label %144

88:                                               ; preds = %82
  %89 = load i32, i32* %5, align 4
  %90 = sext i32 %89 to i64
  %91 = getelementptr inbounds [101 x i32], [101 x i32]* %9, i64 0, i64 %90
  %92 = load i32, i32* %91, align 4
  %93 = load i32, i32* %5, align 4
  %94 = add nsw i32 %93, 1
  %95 = sext i32 %94 to i64
  %96 = getelementptr inbounds [101 x i32], [101 x i32]* %9, i64 0, i64 %95
  %97 = load i32, i32* %96, align 4
  %98 = icmp slt i32 %92, %97
  br i1 %98, label %99, label %140

99:                                               ; preds = %88
  %100 = getelementptr inbounds [11 x i8], [11 x i8]* %11, i64 0, i64 0
  %101 = load i32, i32* %5, align 4
  %102 = sext i32 %101 to i64
  %103 = getelementptr inbounds [101 x [11 x i8]], [101 x [11 x i8]]* %13, i64 0, i64 %102
  %104 = getelementptr inbounds [11 x i8], [11 x i8]* %103, i64 0, i64 0
  %105 = call i8* @strcpy(i8* %100, i8* %104) #3
  %106 = load i32, i32* %5, align 4
  %107 = sext i32 %106 to i64
  %108 = getelementptr inbounds [101 x [11 x i8]], [101 x [11 x i8]]* %13, i64 0, i64 %107
  %109 = getelementptr inbounds [11 x i8], [11 x i8]* %108, i64 0, i64 0
  %110 = load i32, i32* %5, align 4
  %111 = add nsw i32 %110, 1
  %112 = sext i32 %111 to i64
  %113 = getelementptr inbounds [101 x [11 x i8]], [101 x [11 x i8]]* %13, i64 0, i64 %112
  %114 = getelementptr inbounds [11 x i8], [11 x i8]* %113, i64 0, i64 0
  %115 = call i8* @strcpy(i8* %109, i8* %114) #3
  %116 = load i32, i32* %5, align 4
  %117 = add nsw i32 %116, 1
  %118 = sext i32 %117 to i64
  %119 = getelementptr inbounds [101 x [11 x i8]], [101 x [11 x i8]]* %13, i64 0, i64 %118
  %120 = getelementptr inbounds [11 x i8], [11 x i8]* %119, i64 0, i64 0
  %121 = getelementptr inbounds [11 x i8], [11 x i8]* %11, i64 0, i64 0
  %122 = call i8* @strcpy(i8* %120, i8* %121) #3
  %123 = load i32, i32* %5, align 4
  %124 = sext i32 %123 to i64
  %125 = getelementptr inbounds [101 x i32], [101 x i32]* %9, i64 0, i64 %124
  %126 = load i32, i32* %125, align 4
  store i32 %126, i32* %3, align 4
  %127 = load i32, i32* %5, align 4
  %128 = add nsw i32 %127, 1
  %129 = sext i32 %128 to i64
  %130 = getelementptr inbounds [101 x i32], [101 x i32]* %9, i64 0, i64 %129
  %131 = load i32, i32* %130, align 4
  %132 = load i32, i32* %5, align 4
  %133 = sext i32 %132 to i64
  %134 = getelementptr inbounds [101 x i32], [101 x i32]* %9, i64 0, i64 %133
  store i32 %131, i32* %134, align 4
  %135 = load i32, i32* %3, align 4
  %136 = load i32, i32* %5, align 4
  %137 = add nsw i32 %136, 1
  %138 = sext i32 %137 to i64
  %139 = getelementptr inbounds [101 x i32], [101 x i32]* %9, i64 0, i64 %138
  store i32 %135, i32* %139, align 4
  br label %140

140:                                              ; preds = %99, %88
  br label %141

141:                                              ; preds = %140
  %142 = load i32, i32* %5, align 4
  %143 = add nsw i32 %142, 1
  store i32 %143, i32* %5, align 4
  br label %82

144:                                              ; preds = %82
  br label %145

145:                                              ; preds = %144
  %146 = load i32, i32* %2, align 4
  %147 = add nsw i32 %146, 1
  store i32 %147, i32* %2, align 4
  br label %77

148:                                              ; preds = %77
  store i32 0, i32* %5, align 4
  br label %149

149:                                              ; preds = %159, %148
  %150 = load i32, i32* %5, align 4
  %151 = load i32, i32* %6, align 4
  %152 = icmp slt i32 %150, %151
  br i1 %152, label %153, label %162

153:                                              ; preds = %149
  %154 = load i32, i32* %5, align 4
  %155 = sext i32 %154 to i64
  %156 = getelementptr inbounds [101 x [11 x i8]], [101 x [11 x i8]]* %13, i64 0, i64 %155
  %157 = getelementptr inbounds [11 x i8], [11 x i8]* %156, i64 0, i64 0
  %158 = call i32 (i8*, ...) @printf(i8* getelementptr inbounds ([4 x i8], [4 x i8]* @.str.2, i64 0, i64 0), i8* %157)
  br label %159

159:                                              ; preds = %153
  %160 = load i32, i32* %5, align 4
  %161 = add nsw i32 %160, 1
  store i32 %161, i32* %5, align 4
  br label %149

162:                                              ; preds = %149
  store i32 0, i32* %5, align 4
  br label %163

163:                                              ; preds = %173, %162
  %164 = load i32, i32* %5, align 4
  %165 = load i32, i32* %7, align 4
  %166 = icmp slt i32 %164, %165
  br i1 %166, label %167, label %176

167:                                              ; preds = %163
  %168 = load i32, i32* %5, align 4
  %169 = sext i32 %168 to i64
  %170 = getelementptr inbounds [101 x [11 x i8]], [101 x [11 x i8]]* %14, i64 0, i64 %169
  %171 = getelementptr inbounds [11 x i8], [11 x i8]* %170, i64 0, i64 0
  %172 = call i32 (i8*, ...) @printf(i8* getelementptr inbounds ([4 x i8], [4 x i8]* @.str.2, i64 0, i64 0), i8* %171)
  br label %173

173:                                              ; preds = %167
  %174 = load i32, i32* %5, align 4
  %175 = add nsw i32 %174, 1
  store i32 %175, i32* %5, align 4
  br label %163

176:                                              ; preds = %163
  ret i32 0
}

declare dso_local i32 @__isoc99_scanf(i8*, ...) #1

; Function Attrs: nounwind
declare dso_local i8* @strcpy(i8*, i8*) #2

declare dso_local i32 @printf(i8*, ...) #1


!llvm.module.flags = !{!0}
!llvm.ident = !{!1}

!0 = !{i32 1, !"wchar_size", i32 4}
!1 = !{!"clang version 10.0.0-4ubuntu1 "}
